; Function Attrs: nounwind uwtable
define void @Gia_ManSimCollect_rec(ptr noundef readonly captures(none) %0, ptr noundef %1, ptr noundef captures(none) %2) local_unnamed_addr #1 {
  %4 = getelementptr i8, ptr %0, i64 32
  %5 = getelementptr inbounds nuw i8, ptr %2, i64 4
  %.phi.trans.insert.i = getelementptr inbounds nuw i8, ptr %2, i64 8
  br label %tailrecurse

tailrecurse:                                      ; preds = %46, %3
  %.tr13 = phi ptr [ %1, %3 ], [ %64, %46 ]
  %.val = load ptr, ptr %4, align 8, !tbaa !16
  %6 = ptrtoint ptr %.tr13 to i64
  %7 = and i64 %6, -2
  %8 = ptrtoint ptr %.val to i64
  %9 = sub i64 %7, %8
  %10 = sdiv exact i64 %9, 12
  %11 = trunc i64 %10 to i32
  %12 = trunc i64 %6 to i32
  %13 = and i32 %12, 1
  %14 = shl nsw i32 %11, 1
  %15 = or disjoint i32 %14, %13
  %16 = load i32, ptr %5, align 4, !tbaa !34
  %17 = load i32, ptr %2, align 8, !tbaa !35
  %18 = icmp eq i32 %16, %17
  br i1 %18, label %19, label %.Vec_IntGrow.exit10_crit_edge.i

.Vec_IntGrow.exit10_crit_edge.i:                  ; preds = %tailrecurse
  %.pre.i = load ptr, ptr %.phi.trans.insert.i, align 8, !tbaa !36
  br label %Vec_IntPush.exit

19:                                               ; preds = %tailrecurse
  %20 = icmp slt i32 %16, 16
  br i1 %20, label %21, label %28

21:                                               ; preds = %19
  %22 = load ptr, ptr %.phi.trans.insert.i, align 8, !tbaa !36
  %.not9.i.i = icmp eq ptr %22, null
  br i1 %.not9.i.i, label %25, label %23

23:                                               ; preds = %21
  %24 = tail call dereferenceable_or_null(64) ptr @realloc(ptr noundef nonnull %22, i64 noundef 64) #24
  br label %Vec_IntGrow.exit.i

25:                                               ; preds = %21
  %26 = tail call noalias dereferenceable_or_null(64) ptr @malloc(i64 noundef 64) #25
  br label %Vec_IntGrow.exit.i

Vec_IntGrow.exit.i:                               ; preds = %25, %23
  %27 = phi ptr [ %24, %23 ], [ %26, %25 ]
  store ptr %27, ptr %.phi.trans.insert.i, align 8, !tbaa !36
  store i32 16, ptr %2, align 8, !tbaa !35
  br label %Vec_IntPush.exit

28:                                               ; preds = %19
  %29 = shl nuw nsw i32 %16, 1
  %30 = load ptr, ptr %.phi.trans.insert.i, align 8, !tbaa !36
  %.not9.i9.i = icmp eq ptr %30, null
  %31 = zext nneg i32 %29 to i64
  %32 = shl nuw nsw i64 %31, 2
  br i1 %.not9.i9.i, label %35, label %33

33:                                               ; preds = %28
  %34 = tail call ptr @realloc(ptr noundef nonnull %30, i64 noundef %32) #24
  br label %37

35:                                               ; preds = %28
  %36 = tail call noalias ptr @malloc(i64 noundef %32) #25
  br label %37

37:                                               ; preds = %35, %33
  %38 = phi ptr [ %34, %33 ], [ %36, %35 ]
  store ptr %38, ptr %.phi.trans.insert.i, align 8, !tbaa !36
  store i32 %29, ptr %2, align 8, !tbaa !35
  br label %Vec_IntPush.exit

Vec_IntPush.exit:                                 ; preds = %.Vec_IntGrow.exit10_crit_edge.i, %Vec_IntGrow.exit.i, %37
  %39 = phi ptr [ %.pre.i, %.Vec_IntGrow.exit10_crit_edge.i ], [ %38, %37 ], [ %27, %Vec_IntGrow.exit.i ]
  %40 = load i32, ptr %5, align 4, !tbaa !34
  %41 = add nsw i32 %40, 1
  store i32 %41, ptr %5, align 4, !tbaa !34
  %42 = sext i32 %40 to i64
  %43 = getelementptr inbounds i32, ptr %39, i64 %42
  store i32 %15, ptr %43, align 4, !tbaa !37
  %.not = icmp eq i32 %13, 0
  br i1 %.not, label %44, label %65

44:                                               ; preds = %Vec_IntPush.exit
  %.val12 = load i64, ptr %.tr13, align 4
  %45 = and i64 %.val12, 2684354559
  %narrow.i.not = icmp eq i64 %45, 2684354559
  br i1 %narrow.i.not, label %65, label %46

46:                                               ; preds = %44
  %47 = and i64 %.val12, 536870911
  %48 = sub nsw i64 0, %47
  %49 = getelementptr inbounds %struct.Gia_Obj_t_, ptr %.tr13, i64 %48
  %50 = lshr i64 %.val12, 29
  %51 = and i64 %50, 1
  %52 = ptrtoint ptr %49 to i64
  %53 = xor i64 %51, %52
  %54 = inttoptr i64 %53 to ptr
  tail call void @Gia_ManSimCollect_rec(ptr noundef nonnull %0, ptr noundef %54, ptr noundef nonnull %2)
  %55 = load i64, ptr %.tr13, align 4
  %56 = lshr i64 %55, 32
  %57 = and i64 %56, 536870911
  %58 = sub nsw i64 0, %57
  %59 = getelementptr inbounds %struct.Gia_Obj_t_, ptr %.tr13, i64 %58
  %60 = lshr i64 %55, 61
  %61 = and i64 %60, 1
  %62 = ptrtoint ptr %59 to i64
  %63 = xor i64 %61, %62
  %64 = inttoptr i64 %63 to ptr
  br label %tailrecurse

65:                                               ; preds = %Vec_IntPush.exit, %44
  ret void
}